; Function Attrs: mustprogress uwtable
define noundef i32 @_ZNK7Imf_3_218DeepTiledInputFile11levelHeightEi(ptr nocapture noundef nonnull readonly align 8 dereferenceable(16) %this, i32 noundef %ly) local_unnamed_addr #3 align 2 personality ptr @__gxx_personality_v0 {
entry:
  %_iex_replace_s = alloca %"class.std::__cxx11::basic_stringstream", align 8
  %_data = getelementptr inbounds i8, ptr %this, i64 8
  %0 = load ptr, ptr %_data, align 8
  %minY = getelementptr inbounds i8, ptr %0, i64 236
  %1 = load i32, ptr %minY, align 4
  %maxY = getelementptr inbounds i8, ptr %0, i64 240
  %2 = load i32, ptr %maxY, align 8
  %roundingMode = getelementptr inbounds i8, ptr %0, i64 108
  %3 = load i32, ptr %roundingMode, align 4
  %call = invoke noundef i32 @_ZN7Imf_3_29levelSizeEiiiNS_17LevelRoundingModeE(i32 noundef %1, i32 noundef %2, i32 noundef %ly, i32 noundef %3)
          to label %invoke.cont unwind label %lpad

invoke.cont:                                      ; preds = %entry
  ret i32 %call

lpad:                                             ; preds = %entry
  %4 = landingpad { ptr, i32 }
          catch ptr @_ZTIN7Iex_3_27BaseExcE
  %5 = extractvalue { ptr, i32 } %4, 1
  %6 = tail call i32 @llvm.eh.typeid.for(ptr nonnull @_ZTIN7Iex_3_27BaseExcE) #20
  %matches = icmp eq i32 %5, %6
  br i1 %matches, label %catch, label %eh.resume

catch:                                            ; preds = %lpad
  %7 = extractvalue { ptr, i32 } %4, 0
  %8 = tail call ptr @__cxa_begin_catch(ptr %7) #20
  invoke void @_ZNSt7__cxx1118basic_stringstreamIcSt11char_traitsIcESaIcEEC1Ev(ptr noundef nonnull align 8 dereferenceable(128) %_iex_replace_s)
          to label %invoke.cont5 unwind label %lpad4

invoke.cont5:                                     ; preds = %catch
  %add.ptr = getelementptr inbounds i8, ptr %_iex_replace_s, i64 16
  %call8 = invoke noundef nonnull align 8 dereferenceable(8) ptr @_ZStlsISt11char_traitsIcEERSt13basic_ostreamIcT_ES5_PKc(ptr noundef nonnull align 8 dereferenceable(8) %add.ptr, ptr noundef nonnull @.str.42)
          to label %invoke.cont7 unwind label %lpad6

invoke.cont7:                                     ; preds = %invoke.cont5
  %9 = load ptr, ptr %_data, align 8
  %_streamData.i = getelementptr inbounds i8, ptr %9, i64 472
  %10 = load ptr, ptr %_streamData.i, align 8
  %is.i = getelementptr inbounds i8, ptr %10, i64 40
  %11 = load ptr, ptr %is.i, align 8
  %call.i4 = invoke noundef ptr @_ZNK7Imf_3_27IStream8fileNameEv(ptr noundef nonnull align 8 dereferenceable(40) %11)
          to label %invoke.cont9 unwind label %lpad6

invoke.cont9:                                     ; preds = %invoke.cont7
  %call12 = invoke noundef nonnull align 8 dereferenceable(8) ptr @_ZStlsISt11char_traitsIcEERSt13basic_ostreamIcT_ES5_PKc(ptr noundef nonnull align 8 dereferenceable(8) %call8, ptr noundef %call.i4)
          to label %invoke.cont11 unwind label %lpad6

invoke.cont11:                                    ; preds = %invoke.cont9
  %call14 = invoke noundef nonnull align 8 dereferenceable(8) ptr @_ZStlsISt11char_traitsIcEERSt13basic_ostreamIcT_ES5_PKc(ptr noundef nonnull align 8 dereferenceable(8) %call12, ptr noundef nonnull @.str.9)
          to label %invoke.cont13 unwind label %lpad6

invoke.cont13:                                    ; preds = %invoke.cont11
  %vtable = load ptr, ptr %8, align 8
  %vfn = getelementptr inbounds i8, ptr %vtable, i64 16
  %12 = load ptr, ptr %vfn, align 8
  %call15 = call noundef ptr %12(ptr noundef nonnull align 8 dereferenceable(72) %8) #20
  %call17 = invoke noundef nonnull align 8 dereferenceable(8) ptr @_ZStlsISt11char_traitsIcEERSt13basic_ostreamIcT_ES5_PKc(ptr noundef nonnull align 8 dereferenceable(8) %call14, ptr noundef %call15)
          to label %invoke.cont16 unwind label %lpad6

invoke.cont16:                                    ; preds = %invoke.cont13
  %call19 = invoke noundef nonnull align 8 dereferenceable(72) ptr @_ZN7Iex_3_27BaseExc6assignERNSt7__cxx1118basic_stringstreamIcSt11char_traitsIcESaIcEEE(ptr noundef nonnull align 8 dereferenceable(72) %8, ptr noundef nonnull align 8 dereferenceable(128) %_iex_replace_s)
          to label %invoke.cont18 unwind label %lpad6

invoke.cont18:                                    ; preds = %invoke.cont16
  call void @_ZNSt7__cxx1118basic_stringstreamIcSt11char_traitsIcESaIcEED1Ev(ptr noundef nonnull align 8 dereferenceable(128) %_iex_replace_s) #20
  invoke void @__cxa_rethrow() #24
          to label %unreachable unwind label %lpad4

lpad4:                                            ; preds = %invoke.cont18, %catch
  %13 = landingpad { ptr, i32 }
          cleanup
  br label %ehcleanup

lpad6:                                            ; preds = %invoke.cont7, %invoke.cont16, %invoke.cont13, %invoke.cont11, %invoke.cont9, %invoke.cont5
  %14 = landingpad { ptr, i32 }
          cleanup
  call void @_ZNSt7__cxx1118basic_stringstreamIcSt11char_traitsIcESaIcEED1Ev(ptr noundef nonnull align 8 dereferenceable(128) %_iex_replace_s) #20
  br label %ehcleanup

ehcleanup:                                        ; preds = %lpad6, %lpad4
  %.pn = phi { ptr, i32 } [ %13, %lpad4 ], [ %14, %lpad6 ]
  invoke void @__cxa_end_catch()
          to label %eh.resume unwind label %terminate.lpad

eh.resume:                                        ; preds = %ehcleanup, %lpad
  %lpad.val23.merged = phi { ptr, i32 } [ %.pn, %ehcleanup ], [ %4, %lpad ]
  resume { ptr, i32 } %lpad.val23.merged

terminate.lpad:                                   ; preds = %ehcleanup
  %15 = landingpad { ptr, i32 }
          catch ptr null
  %16 = extractvalue { ptr, i32 } %15, 0
  call void @__clang_call_terminate(ptr %16) #23
  unreachable

unreachable:                                      ; preds = %invoke.cont18
  unreachable
}